; Function Attrs: mustprogress uwtable
define internal void @_ZNK32pxrInternal_v0_24__pxrReserved__12_GLOBAL__N_120_DispatchingResolver10_OpenAssetERKNS_14ArResolvedPathE(ptr dead_on_unwind noalias writable sret(%"class.std::shared_ptr.39") align 8 %0, ptr noundef nonnull align 8 dereferenceable(320) %1, ptr noundef nonnull align 8 dereferenceable(32) %2) unnamed_addr #0 align 2 personality ptr @__gxx_personality_v0 {
  %4 = alloca %"struct.std::pair.236", align 8
  %5 = tail call fastcc noundef ptr @_ZNK32pxrInternal_v0_24__pxrReserved__12_GLOBAL__N_120_DispatchingResolver15_GetURIResolverERKNSt7__cxx1112basic_stringIcSt11char_traitsIcESaIcEEEPPKNS0_13_ResolverInfoE(ptr noundef nonnull readonly align 8 dereferenceable(320) %1, ptr noundef nonnull align 8 dereferenceable(32) %2, ptr noundef null)
  %.not.i = icmp eq ptr %5, null
  br i1 %.not.i, label %6, label %_ZNK32pxrInternal_v0_24__pxrReserved__12_GLOBAL__N_120_DispatchingResolver12_GetResolverERKNSt7__cxx1112basic_stringIcSt11char_traitsIcESaIcEEEPPKNS0_13_ResolverInfoE.exit

6:                                                ; preds = %3
  %7 = getelementptr inbounds nuw i8, ptr %1, i64 8
  %.val.i = load ptr, ptr %7, align 8
  %8 = tail call fastcc noundef ptr @_ZN32pxrInternal_v0_24__pxrReserved__12_GLOBAL__N_115_PluginResolverINS_10ArResolverENS_22Ar_ResolverFactoryBaseEE3GetEv(ptr noundef nonnull align 8 dereferenceable(88) %.val.i)
  br label %_ZNK32pxrInternal_v0_24__pxrReserved__12_GLOBAL__N_120_DispatchingResolver12_GetResolverERKNSt7__cxx1112basic_stringIcSt11char_traitsIcESaIcEEEPPKNS0_13_ResolverInfoE.exit

_ZNK32pxrInternal_v0_24__pxrReserved__12_GLOBAL__N_120_DispatchingResolver12_GetResolverERKNSt7__cxx1112basic_stringIcSt11char_traitsIcESaIcEEEPPKNS0_13_ResolverInfoE.exit: ; preds = %3, %6
  %.0.i = phi ptr [ %8, %6 ], [ %5, %3 ]
  %9 = tail call noundef zeroext i1 @_ZN32pxrInternal_v0_24__pxrReserved__23ArIsPackageRelativePathERKNSt7__cxx1112basic_stringIcSt11char_traitsIcESaIcEEE(ptr noundef nonnull align 8 dereferenceable(32) %2)
  br i1 %9, label %10, label %24

10:                                               ; preds = %_ZNK32pxrInternal_v0_24__pxrReserved__12_GLOBAL__N_120_DispatchingResolver12_GetResolverERKNSt7__cxx1112basic_stringIcSt11char_traitsIcESaIcEEEPPKNS0_13_ResolverInfoE.exit
  call void @_ZN32pxrInternal_v0_24__pxrReserved__31ArSplitPackageRelativePathInnerERKNSt7__cxx1112basic_stringIcSt11char_traitsIcESaIcEEE(ptr dead_on_unwind nonnull writable sret(%"struct.std::pair.236") align 8 %4, ptr noundef nonnull align 8 dereferenceable(32) %2)
  %11 = invoke fastcc noundef ptr @_ZNK32pxrInternal_v0_24__pxrReserved__12_GLOBAL__N_120_DispatchingResolver19_GetPackageResolverERKNSt7__cxx1112basic_stringIcSt11char_traitsIcESaIcEEE(ptr noundef nonnull align 8 dereferenceable(320) %1, ptr noundef nonnull align 8 dereferenceable(32) %4)
          to label %12 unwind label %18

12:                                               ; preds = %10
  %.not = icmp eq ptr %11, null
  br i1 %.not, label %21, label %13

13:                                               ; preds = %12
  %14 = getelementptr inbounds nuw i8, ptr %4, i64 32
  %15 = load ptr, ptr %11, align 8
  %16 = getelementptr inbounds i8, ptr %15, i64 24
  %17 = load ptr, ptr %16, align 8
  invoke void %17(ptr dead_on_unwind writable sret(%"class.std::shared_ptr.39") align 8 %0, ptr noundef nonnull align 8 dereferenceable(8) %11, ptr noundef nonnull align 8 dereferenceable(32) %4, ptr noundef nonnull align 8 dereferenceable(32) %14)
          to label %22 unwind label %18

18:                                               ; preds = %13, %10
  %19 = landingpad { ptr, i32 }
          cleanup
  %20 = getelementptr inbounds nuw i8, ptr %4, i64 32
  call void @_ZNSt7__cxx1112basic_stringIcSt11char_traitsIcESaIcEED1Ev(ptr noundef nonnull align 8 dereferenceable(32) %20) #15
  call void @_ZNSt7__cxx1112basic_stringIcSt11char_traitsIcESaIcEED1Ev(ptr noundef nonnull align 8 dereferenceable(32) %4) #15
  resume { ptr, i32 } %19

21:                                               ; preds = %12
  call void @llvm.memset.p0.i64(ptr noundef nonnull align 8 dereferenceable(16) %0, i8 0, i64 16, i1 false)
  br label %22

22:                                               ; preds = %13, %21
  %23 = getelementptr inbounds nuw i8, ptr %4, i64 32
  call void @_ZNSt7__cxx1112basic_stringIcSt11char_traitsIcESaIcEED1Ev(ptr noundef nonnull align 8 dereferenceable(32) %23) #15
  call void @_ZNSt7__cxx1112basic_stringIcSt11char_traitsIcESaIcEED1Ev(ptr noundef nonnull align 8 dereferenceable(32) %4) #15
  br label %28

24:                                               ; preds = %_ZNK32pxrInternal_v0_24__pxrReserved__12_GLOBAL__N_120_DispatchingResolver12_GetResolverERKNSt7__cxx1112basic_stringIcSt11char_traitsIcESaIcEEEPPKNS0_13_ResolverInfoE.exit
  %25 = load ptr, ptr %.0.i, align 8, !noalias !151
  %26 = getelementptr inbounds i8, ptr %25, i64 136
  %27 = load ptr, ptr %26, align 8, !noalias !151
  tail call void %27(ptr dead_on_unwind writable sret(%"class.std::shared_ptr.39") align 8 %0, ptr noundef nonnull align 8 dereferenceable(8) %.0.i, ptr noundef nonnull align 8 dereferenceable(32) %2)
  br label %28

28:                                               ; preds = %24, %22
  ret void
}